; ModuleID = '20/931.c'
source_filename = "20/931.c"
target datalayout = "e-m:e-p270:32:32-p271:32:32-p272:64:64-i64:64-f80:128-n8:16:32:64-S128"
target triple = "x86_64-pc-linux-gnu"

@.str = private unnamed_addr constant [5 x i8] c"%s%s\00", align 1
@.str.1 = private unnamed_addr constant [3 x i8] c"%c\00", align 1
@.str.2 = private unnamed_addr constant [3 x i8] c"%s\00", align 1
@.str.3 = private unnamed_addr constant [2 x i8] c"\0A\00", align 1

; Function Attrs: noinline nounwind uwtable
define dso_local void @main() #0 {
  %1 = alloca i32, align 4
  %2 = alloca [13 x i8], align 1
  %3 = alloca [5 x i8], align 1
  %4 = alloca i32, align 4
  %5 = alloca i32, align 4
  br label %6

6:                                                ; preds = %73, %0
  %7 = getelementptr inbounds [13 x i8], [13 x i8]* %2, i64 0, i64 0
  %8 = getelementptr inbounds [5 x i8], [5 x i8]* %3, i64 0, i64 0
  %9 = call i32 (i8*, ...) @__isoc99_scanf(i8* getelementptr inbounds ([5 x i8], [5 x i8]* @.str, i64 0, i64 0), i8* %7, i8* %8)
  %10 = icmp ne i32 %9, -1
  br i1 %10, label %11, label %75

11:                                               ; preds = %6
  %12 = getelementptr inbounds [13 x i8], [13 x i8]* %2, i64 0, i64 0
  %13 = call i64 @strlen(i8* %12) #3
  %14 = trunc i64 %13 to i32
  store i32 %14, i32* %4, align 4
  store i32 0, i32* %5, align 4
  store i32 0, i32* %1, align 4
  br label %15

15:                                               ; preds = %34, %11
  %16 = load i32, i32* %1, align 4
  %17 = load i32, i32* %4, align 4
  %18 = icmp slt i32 %16, %17
  br i1 %18, label %19, label %37

19:                                               ; preds = %15
  %20 = load i32, i32* %1, align 4
  %21 = sext i32 %20 to i64
  %22 = getelementptr inbounds [13 x i8], [13 x i8]* %2, i64 0, i64 %21
  %23 = load i8, i8* %22, align 1
  %24 = sext i8 %23 to i32
  %25 = load i32, i32* %5, align 4
  %26 = sext i32 %25 to i64
  %27 = getelementptr inbounds [13 x i8], [13 x i8]* %2, i64 0, i64 %26
  %28 = load i8, i8* %27, align 1
  %29 = sext i8 %28 to i32
  %30 = icmp sgt i32 %24, %29
  br i1 %30, label %31, label %33

31:                                               ; preds = %19
  %32 = load i32, i32* %1, align 4
  store i32 %32, i32* %5, align 4
  br label %33

33:                                               ; preds = %31, %19
  br label %34

34:                                               ; preds = %33
  %35 = load i32, i32* %1, align 4
  %36 = add nsw i32 %35, 1
  store i32 %36, i32* %1, align 4
  br label %15

37:                                               ; preds = %15
  store i32 0, i32* %1, align 4
  br label %38

38:                                               ; preds = %42, %37
  %39 = load i32, i32* %1, align 4
  %40 = load i32, i32* %5, align 4
  %41 = icmp sle i32 %39, %40
  br i1 %41, label %42, label %51

42:                                               ; preds = %38
  %43 = load i32, i32* %1, align 4
  %44 = sext i32 %43 to i64
  %45 = getelementptr inbounds [13 x i8], [13 x i8]* %2, i64 0, i64 %44
  %46 = load i8, i8* %45, align 1
  %47 = sext i8 %46 to i32
  %48 = call i32 (i8*, ...) @printf(i8* getelementptr inbounds ([3 x i8], [3 x i8]* @.str.1, i64 0, i64 0), i32 %47)
  %49 = load i32, i32* %1, align 4
  %50 = add nsw i32 %49, 1
  store i32 %50, i32* %1, align 4
  br label %38

51:                                               ; preds = %38
  %52 = getelementptr inbounds [5 x i8], [5 x i8]* %3, i64 0, i64 0
  %53 = call i32 (i8*, ...) @printf(i8* getelementptr inbounds ([3 x i8], [3 x i8]* @.str.2, i64 0, i64 0), i8* %52)
  br label %54

54:                                               ; preds = %64, %51
  %55 = load i32, i32* %1, align 4
  %56 = load i32, i32* %5, align 4
  %57 = icmp sgt i32 %55, %56
  br i1 %57, label %58, label %62

58:                                               ; preds = %54
  %59 = load i32, i32* %1, align 4
  %60 = load i32, i32* %4, align 4
  %61 = icmp slt i32 %59, %60
  br label %62

62:                                               ; preds = %58, %54
  %63 = phi i1 [ false, %54 ], [ %61, %58 ]
  br i1 %63, label %64, label %73

64:                                               ; preds = %62
  %65 = load i32, i32* %1, align 4
  %66 = sext i32 %65 to i64
  %67 = getelementptr inbounds [13 x i8], [13 x i8]* %2, i64 0, i64 %66
  %68 = load i8, i8* %67, align 1
  %69 = sext i8 %68 to i32
  %70 = call i32 (i8*, ...) @printf(i8* getelementptr inbounds ([3 x i8], [3 x i8]* @.str.1, i64 0, i64 0), i32 %69)
  %71 = load i32, i32* %1, align 4
  %72 = add nsw i32 %71, 1
  store i32 %72, i32* %1, align 4
  br label %54

73:                                               ; preds = %62
  %74 = call i32 (i8*, ...) @printf(i8* getelementptr inbounds ([2 x i8], [2 x i8]* @.str.3, i64 0, i64 0))
  br label %6

75:                                               ; preds = %6
  ret void
}

declare dso_local i32 @__isoc99_scanf(i8*, ...) #1

; Function Attrs: nounwind readonly
declare dso_local i64 @strlen(i8*) #2

declare dso_local i32 @printf(i8*, ...) #1


!llvm.module.flags = !{!0}
!llvm.ident = !{!1}

!0 = !{i32 1, !"wchar_size", i32 4}
!1 = !{!"clang version 10.0.0-4ubuntu1 "}
