; ModuleID = 'source-C-CXX/19/931.c'
source_filename = "source-C-CXX/19/931.c"
target datalayout = "e-m:e-p270:32:32-p271:32:32-p272:64:64-i64:64-f80:128-n8:16:32:64-S128"
target triple = "x86_64-pc-linux-gnu"

@.str = private unnamed_addr constant [5 x i8] c"%s%s\00", align 1
@.str.2 = private unnamed_addr constant [3 x i8] c"%s\00", align 1

; Function Attrs: nofree nounwind sspstrong uwtable
define dso_local void @main() local_unnamed_addr #0 {
  %1 = alloca [13 x i8], align 1
  %2 = alloca [5 x i8], align 1
  %3 = getelementptr inbounds [13 x i8], [13 x i8]* %1, i64 0, i64 0
  call void @llvm.lifetime.start.p0i8(i64 13, i8* nonnull %3) #5
  %4 = getelementptr inbounds [5 x i8], [5 x i8]* %2, i64 0, i64 0
  call void @llvm.lifetime.start.p0i8(i64 5, i8* nonnull %4) #5
  %5 = call i32 (i8*, ...) @__isoc99_scanf(i8* getelementptr inbounds ([5 x i8], [5 x i8]* @.str, i64 0, i64 0), i8* nonnull %3, i8* nonnull %4)
  %6 = icmp eq i32 %5, -1
  br i1 %6, label %117, label %7

7:                                                ; preds = %0, %113
  %8 = call i64 @strlen(i8* noundef nonnull %3) #6
  %9 = trunc i64 %8 to i32
  %10 = icmp sgt i32 %9, 0
  br i1 %10, label %11, label %41

11:                                               ; preds = %7
  %12 = and i64 %8, 4294967295
  %13 = add nsw i64 %12, -1
  %14 = and i64 %8, 3
  %15 = icmp ult i64 %13, 3
  br i1 %15, label %18, label %16

16:                                               ; preds = %11
  %17 = sub nsw i64 %12, %14
  br label %45

18:                                               ; preds = %45, %11
  %19 = phi i32 [ undef, %11 ], [ %83, %45 ]
  %20 = phi i64 [ 0, %11 ], [ %84, %45 ]
  %21 = phi i32 [ 0, %11 ], [ %83, %45 ]
  %22 = icmp eq i64 %14, 0
  br i1 %22, label %38, label %23

23:                                               ; preds = %18, %23
  %24 = phi i64 [ %35, %23 ], [ %20, %18 ]
  %25 = phi i32 [ %34, %23 ], [ %21, %18 ]
  %26 = phi i64 [ %36, %23 ], [ %14, %18 ]
  %27 = getelementptr inbounds [13 x i8], [13 x i8]* %1, i64 0, i64 %24
  %28 = load i8, i8* %27, align 1, !tbaa !5
  %29 = sext i32 %25 to i64
  %30 = getelementptr inbounds [13 x i8], [13 x i8]* %1, i64 0, i64 %29
  %31 = load i8, i8* %30, align 1, !tbaa !5
  %32 = icmp sgt i8 %28, %31
  %33 = trunc i64 %24 to i32
  %34 = select i1 %32, i32 %33, i32 %25
  %35 = add nuw nsw i64 %24, 1
  %36 = add i64 %26, -1
  %37 = icmp eq i64 %36, 0
  br i1 %37, label %38, label %23, !llvm.loop !8

38:                                               ; preds = %23, %18
  %39 = phi i32 [ %19, %18 ], [ %34, %23 ]
  %40 = icmp slt i32 %39, 0
  br i1 %40, label %95, label %41

41:                                               ; preds = %7, %38
  %42 = phi i32 [ %39, %38 ], [ 0, %7 ]
  %43 = add nuw i32 %42, 1
  %44 = zext i32 %43 to i64
  br label %87

45:                                               ; preds = %45, %16
  %46 = phi i64 [ 0, %16 ], [ %84, %45 ]
  %47 = phi i32 [ 0, %16 ], [ %83, %45 ]
  %48 = phi i64 [ %17, %16 ], [ %85, %45 ]
  %49 = getelementptr inbounds [13 x i8], [13 x i8]* %1, i64 0, i64 %46
  %50 = load i8, i8* %49, align 1, !tbaa !5
  %51 = sext i32 %47 to i64
  %52 = getelementptr inbounds [13 x i8], [13 x i8]* %1, i64 0, i64 %51
  %53 = load i8, i8* %52, align 1, !tbaa !5
  %54 = icmp sgt i8 %50, %53
  %55 = trunc i64 %46 to i32
  %56 = select i1 %54, i32 %55, i32 %47
  %57 = or i64 %46, 1
  %58 = getelementptr inbounds [13 x i8], [13 x i8]* %1, i64 0, i64 %57
  %59 = load i8, i8* %58, align 1, !tbaa !5
  %60 = sext i32 %56 to i64
  %61 = getelementptr inbounds [13 x i8], [13 x i8]* %1, i64 0, i64 %60
  %62 = load i8, i8* %61, align 1, !tbaa !5
  %63 = icmp sgt i8 %59, %62
  %64 = trunc i64 %57 to i32
  %65 = select i1 %63, i32 %64, i32 %56
  %66 = or i64 %46, 2
  %67 = getelementptr inbounds [13 x i8], [13 x i8]* %1, i64 0, i64 %66
  %68 = load i8, i8* %67, align 1, !tbaa !5
  %69 = sext i32 %65 to i64
  %70 = getelementptr inbounds [13 x i8], [13 x i8]* %1, i64 0, i64 %69
  %71 = load i8, i8* %70, align 1, !tbaa !5
  %72 = icmp sgt i8 %68, %71
  %73 = trunc i64 %66 to i32
  %74 = select i1 %72, i32 %73, i32 %65
  %75 = or i64 %46, 3
  %76 = getelementptr inbounds [13 x i8], [13 x i8]* %1, i64 0, i64 %75
  %77 = load i8, i8* %76, align 1, !tbaa !5
  %78 = sext i32 %74 to i64
  %79 = getelementptr inbounds [13 x i8], [13 x i8]* %1, i64 0, i64 %78
  %80 = load i8, i8* %79, align 1, !tbaa !5
  %81 = icmp sgt i8 %77, %80
  %82 = trunc i64 %75 to i32
  %83 = select i1 %81, i32 %82, i32 %74
  %84 = add nuw nsw i64 %46, 4
  %85 = add i64 %48, -4
  %86 = icmp eq i64 %85, 0
  br i1 %86, label %18, label %45, !llvm.loop !10

87:                                               ; preds = %41, %87
  %88 = phi i64 [ 0, %41 ], [ %93, %87 ]
  %89 = getelementptr inbounds [13 x i8], [13 x i8]* %1, i64 0, i64 %88
  %90 = load i8, i8* %89, align 1, !tbaa !5
  %91 = sext i8 %90 to i32
  %92 = call i32 @putchar(i32 %91)
  %93 = add nuw nsw i64 %88, 1
  %94 = icmp eq i64 %93, %44
  br i1 %94, label %95, label %87, !llvm.loop !12

95:                                               ; preds = %87, %38
  %96 = phi i32 [ %39, %38 ], [ %42, %87 ]
  %97 = phi i32 [ 0, %38 ], [ %43, %87 ]
  %98 = call i32 (i8*, ...) @printf(i8* nonnull dereferenceable(1) getelementptr inbounds ([3 x i8], [3 x i8]* @.str.2, i64 0, i64 0), i8* nonnull %4)
  %99 = icmp sgt i32 %97, %96
  %100 = icmp slt i32 %97, %9
  %101 = select i1 %99, i1 %100, i1 false
  br i1 %101, label %102, label %113

102:                                              ; preds = %95
  %103 = zext i32 %97 to i64
  br label %104

104:                                              ; preds = %102, %104
  %105 = phi i64 [ %103, %102 ], [ %110, %104 ]
  %106 = getelementptr inbounds [13 x i8], [13 x i8]* %1, i64 0, i64 %105
  %107 = load i8, i8* %106, align 1, !tbaa !5
  %108 = sext i8 %107 to i32
  %109 = call i32 @putchar(i32 %108)
  %110 = add nuw nsw i64 %105, 1
  %111 = trunc i64 %110 to i32
  %112 = icmp slt i32 %111, %9
  br i1 %112, label %104, label %113, !llvm.loop !13

113:                                              ; preds = %104, %95
  %114 = call i32 @putchar(i32 10)
  %115 = call i32 (i8*, ...) @__isoc99_scanf(i8* getelementptr inbounds ([5 x i8], [5 x i8]* @.str, i64 0, i64 0), i8* nonnull %3, i8* nonnull %4)
  %116 = icmp eq i32 %115, -1
  br i1 %116, label %117, label %7, !llvm.loop !14

117:                                              ; preds = %113, %0
  call void @llvm.lifetime.end.p0i8(i64 5, i8* nonnull %4) #5
  call void @llvm.lifetime.end.p0i8(i64 13, i8* nonnull %3) #5
  ret void
}

; Function Attrs: argmemonly mustprogress nofree nosync nounwind willreturn
declare void @llvm.lifetime.start.p0i8(i64 immarg, i8* nocapture) #1

; Function Attrs: nofree nounwind
declare noundef i32 @__isoc99_scanf(i8* nocapture noundef readonly, ...) local_unnamed_addr #2

; Function Attrs: argmemonly mustprogress nofree nounwind readonly willreturn
declare i64 @strlen(i8* nocapture) local_unnamed_addr #3

; Function Attrs: nofree nounwind
declare noundef i32 @printf(i8* nocapture noundef readonly, ...) local_unnamed_addr #2

; Function Attrs: argmemonly mustprogress nofree nosync nounwind willreturn
declare void @llvm.lifetime.end.p0i8(i64 immarg, i8* nocapture) #1

; Function Attrs: nofree nounwind
declare noundef i32 @putchar(i32 noundef) local_unnamed_addr #4


!llvm.module.flags = !{!0, !1, !2, !3}
!llvm.ident = !{!4}

!0 = !{i32 1, !"wchar_size", i32 4}
!1 = !{i32 7, !"PIC Level", i32 2}
!2 = !{i32 7, !"PIE Level", i32 2}
!3 = !{i32 7, !"uwtable", i32 1}
!4 = !{!"clang version 13.0.0"}
!5 = !{!6, !6, i64 0}
!6 = !{!"omnipotent char", !7, i64 0}
!7 = !{!"Simple C/C++ TBAA"}
!8 = distinct !{!8, !9}
!9 = !{!"llvm.loop.unroll.disable"}
!10 = distinct !{!10, !11}
!11 = !{!"llvm.loop.mustprogress"}
!12 = distinct !{!12, !11}
!13 = distinct !{!13, !11}
!14 = distinct !{!14, !11}
